target datalayout = "e-m:e-p270:32:32-p271:32:32-p272:64:64-i64:64-i128:128-f80:128-n8:16:32:64-S128"
target triple = "x86_64-pc-linux-gnu"

%struct.aiMaterial = type { ptr, i32, i32 }
%struct.aiMaterialProperty = type { %struct.aiString, i32, i32, i32, i32, ptr }
%struct.aiString = type { i32, [1024 x i8] }

; Function Attrs: mustprogress nounwind uwtable
define linkonce_odr hidden void @_ZN18aiMaterialPropertyD2Ev(ptr noundef nonnull align 8 dereferenceable(1056) %0) unnamed_addr #0 comdat align 2 {
  %2 = alloca ptr, align 8
  store ptr %0, ptr %2, align 8
  %3 = load ptr, ptr %2, align 8
  %4 = getelementptr inbounds nuw %struct.aiMaterialProperty, ptr %3, i32 0, i32 5
  %5 = load ptr, ptr %4, align 8
  %6 = icmp eq ptr %5, null
  br i1 %6, label %8, label %7

7:                                                ; preds = %1
  call void @_ZdaPv(ptr noundef %5) #21
  br label %8

8:                                                ; preds = %7, %1
  %9 = getelementptr inbounds nuw %struct.aiMaterialProperty, ptr %3, i32 0, i32 5
  store ptr null, ptr %9, align 8
  ret void
}

; Function Attrs: mustprogress nounwind uwtable
define noundef i32 @_ZN10aiMaterial14RemovePropertyEPKcjj(ptr noundef nonnull align 8 dereferenceable(16) %0, ptr noundef %1, i32 noundef %2, i32 noundef %3) #0 align 2 {
  %5 = alloca i32, align 4
  %6 = alloca ptr, align 8
  %7 = alloca ptr, align 8
  %8 = alloca i32, align 4
  %9 = alloca i32, align 4
  %10 = alloca i32, align 4
  %11 = alloca i32, align 4
  %12 = alloca ptr, align 8
  %13 = alloca i32, align 4
  store ptr %0, ptr %6, align 8
  store ptr %1, ptr %7, align 8
  store i32 %2, ptr %8, align 4
  store i32 %3, ptr %9, align 4
  %14 = load ptr, ptr %6, align 8
  call void @llvm.lifetime.start.p0(i64 4, ptr %10) #17
  store i32 0, ptr %10, align 4
  br label %15

15:                                               ; preds = %91, %4
  %16 = load i32, ptr %10, align 4
  %17 = getelementptr inbounds nuw %struct.aiMaterial, ptr %14, i32 0, i32 1
  %18 = load i32, ptr %17, align 8
  %19 = icmp ult i32 %16, %18
  br i1 %19, label %21, label %20

20:                                               ; preds = %15
  store i32 2, ptr %11, align 4
  br label %94

21:                                               ; preds = %15
  call void @llvm.lifetime.start.p0(i64 8, ptr %12) #17
  %22 = getelementptr inbounds nuw %struct.aiMaterial, ptr %14, i32 0, i32 0
  %23 = load ptr, ptr %22, align 8
  %24 = load i32, ptr %10, align 4
  %25 = zext i32 %24 to i64
  %26 = getelementptr inbounds nuw ptr, ptr %23, i64 %25
  %27 = load ptr, ptr %26, align 8
  store ptr %27, ptr %12, align 8
  %28 = load ptr, ptr %12, align 8
  %29 = icmp ne ptr %28, null
  br i1 %29, label %30, label %87

30:                                               ; preds = %21
  %31 = load ptr, ptr %12, align 8
  %32 = getelementptr inbounds nuw %struct.aiMaterialProperty, ptr %31, i32 0, i32 0
  %33 = getelementptr inbounds nuw %struct.aiString, ptr %32, i32 0, i32 1
  %34 = getelementptr inbounds [1024 x i8], ptr %33, i64 0, i64 0
  %35 = load ptr, ptr %7, align 8
  %36 = call i32 @strcmp(ptr noundef %34, ptr noundef %35) #18
  %37 = icmp ne i32 %36, 0
  br i1 %37, label %87, label %38

38:                                               ; preds = %30
  %39 = load ptr, ptr %12, align 8
  %40 = getelementptr inbounds nuw %struct.aiMaterialProperty, ptr %39, i32 0, i32 1
  %41 = load i32, ptr %40, align 4
  %42 = load i32, ptr %8, align 4
  %43 = icmp eq i32 %41, %42
  br i1 %43, label %44, label %87

44:                                               ; preds = %38
  %45 = load ptr, ptr %12, align 8
  %46 = getelementptr inbounds nuw %struct.aiMaterialProperty, ptr %45, i32 0, i32 2
  %47 = load i32, ptr %46, align 8
  %48 = load i32, ptr %9, align 4
  %49 = icmp eq i32 %47, %48
  br i1 %49, label %50, label %87

50:                                               ; preds = %44
  %51 = getelementptr inbounds nuw %struct.aiMaterial, ptr %14, i32 0, i32 0
  %52 = load ptr, ptr %51, align 8
  %53 = load i32, ptr %10, align 4
  %54 = zext i32 %53 to i64
  %55 = getelementptr inbounds nuw ptr, ptr %52, i64 %54
  %56 = load ptr, ptr %55, align 8
  %57 = icmp eq ptr %56, null
  br i1 %57, label %59, label %58

58:                                               ; preds = %50
  call void @_ZN18aiMaterialPropertyD2Ev(ptr noundef nonnull align 8 dereferenceable(1056) %56) #17
  call void @_ZdlPvm(ptr noundef %56, i64 noundef 1056) #21
  br label %59

59:                                               ; preds = %58, %50
  %60 = getelementptr inbounds nuw %struct.aiMaterial, ptr %14, i32 0, i32 1
  %61 = load i32, ptr %60, align 8
  %62 = add i32 %61, -1
  store i32 %62, ptr %60, align 8
  call void @llvm.lifetime.start.p0(i64 4, ptr %13) #17
  %63 = load i32, ptr %10, align 4
  store i32 %63, ptr %13, align 4
  br label %64

64:                                               ; preds = %83, %59
  %65 = load i32, ptr %13, align 4
  %66 = getelementptr inbounds nuw %struct.aiMaterial, ptr %14, i32 0, i32 1
  %67 = load i32, ptr %66, align 8
  %68 = icmp ult i32 %65, %67
  br i1 %68, label %70, label %69

69:                                               ; preds = %64
  store i32 5, ptr %11, align 4
  call void @llvm.lifetime.end.p0(i64 4, ptr %13) #17
  br label %86

70:                                               ; preds = %64
  %71 = getelementptr inbounds nuw %struct.aiMaterial, ptr %14, i32 0, i32 0
  %72 = load ptr, ptr %71, align 8
  %73 = load i32, ptr %13, align 4
  %74 = add i32 %73, 1
  %75 = zext i32 %74 to i64
  %76 = getelementptr inbounds nuw ptr, ptr %72, i64 %75
  %77 = load ptr, ptr %76, align 8
  %78 = getelementptr inbounds nuw %struct.aiMaterial, ptr %14, i32 0, i32 0
  %79 = load ptr, ptr %78, align 8
  %80 = load i32, ptr %13, align 4
  %81 = zext i32 %80 to i64
  %82 = getelementptr inbounds nuw ptr, ptr %79, i64 %81
  store ptr %77, ptr %82, align 8
  br label %83

83:                                               ; preds = %70
  %84 = load i32, ptr %13, align 4
  %85 = add i32 %84, 1
  store i32 %85, ptr %13, align 4
  br label %64, !llvm.loop !20

86:                                               ; preds = %69
  store i32 0, ptr %5, align 4
  store i32 1, ptr %11, align 4
  br label %88

87:                                               ; preds = %44, %38, %30, %21
  store i32 0, ptr %11, align 4
  br label %88

88:                                               ; preds = %87, %86
  call void @llvm.lifetime.end.p0(i64 8, ptr %12) #17
  %89 = load i32, ptr %11, align 4
  switch i32 %89, label %94 [
    i32 0, label %90
  ]

90:                                               ; preds = %88
  br label %91

91:                                               ; preds = %90
  %92 = load i32, ptr %10, align 4
  %93 = add i32 %92, 1
  store i32 %93, ptr %10, align 4
  br label %15, !llvm.loop !21

94:                                               ; preds = %88, %20
  call void @llvm.lifetime.end.p0(i64 4, ptr %10) #17
  %95 = load i32, ptr %11, align 4
  switch i32 %95, label %99 [
    i32 2, label %96
    i32 1, label %97
  ]

96:                                               ; preds = %94
  store i32 -1, ptr %5, align 4
  br label %97

97:                                               ; preds = %96, %94
  %98 = load i32, ptr %5, align 4
  ret i32 %98

99:                                               ; preds = %94
  unreachable
}