; Function Attrs: mustprogress nounwind uwtable
define noundef range(i32 -1, 1) i32 @_ZN10aiMaterial14RemovePropertyEPKcjj(ptr noundef nonnull align 8 captures(none) dereferenceable(16) %0, ptr noundef readonly captures(none) %1, i32 noundef %2, i32 noundef %3) local_unnamed_addr #9 align 2 {
  %5 = getelementptr inbounds nuw i8, ptr %0, i64 8
  %6 = load i32, ptr %5, align 8
  %.not2532 = icmp eq i32 %6, 0
  br i1 %.not2532, label %.critedge, label %.lr.ph

.lr.ph:                                           ; preds = %4
  %7 = load ptr, ptr %0, align 8
  %wide.trip.count = zext i32 %6 to i64
  br label %8

8:                                                ; preds = %.lr.ph, %38
  %indvars.iv = phi i64 [ 0, %.lr.ph ], [ %indvars.iv.next, %38 ]
  %9 = getelementptr inbounds nuw ptr, ptr %7, i64 %indvars.iv
  %10 = load ptr, ptr %9, align 8
  %.not = icmp eq ptr %10, null
  br i1 %.not, label %38, label %11

11:                                               ; preds = %8
  %12 = getelementptr inbounds nuw i8, ptr %10, i64 4
  %13 = tail call i32 @strcmp(ptr noundef nonnull dereferenceable(1) %12, ptr noundef nonnull dereferenceable(1) %1) #23
  %.not24 = icmp eq i32 %13, 0
  br i1 %.not24, label %14, label %38

14:                                               ; preds = %11
  %15 = getelementptr inbounds nuw i8, ptr %10, i64 1028
  %16 = load i32, ptr %15, align 4
  %17 = icmp eq i32 %16, %2
  br i1 %17, label %18, label %38

18:                                               ; preds = %14
  %19 = getelementptr inbounds nuw i8, ptr %10, i64 1032
  %20 = load i32, ptr %19, align 8
  %21 = icmp eq i32 %20, %3
  br i1 %21, label %22, label %38

22:                                               ; preds = %18
  %23 = trunc nuw i64 %indvars.iv to i32
  %24 = getelementptr inbounds nuw i8, ptr %10, i64 1048
  %25 = load ptr, ptr %24, align 8
  %26 = icmp eq ptr %25, null
  br i1 %26, label %_ZN18aiMaterialPropertyD2Ev.exit, label %27

27:                                               ; preds = %22
  tail call void @_ZdaPv(ptr noundef nonnull %25) #26
  br label %_ZN18aiMaterialPropertyD2Ev.exit

_ZN18aiMaterialPropertyD2Ev.exit:                 ; preds = %22, %27
  tail call void @_ZdlPvm(ptr noundef nonnull %10, i64 noundef 1056) #26
  %28 = load i32, ptr %5, align 8
  %29 = add i32 %28, -1
  store i32 %29, ptr %5, align 8
  %30 = icmp ugt i32 %29, %23
  br i1 %30, label %.lr.ph36, label %.critedge

.lr.ph36:                                         ; preds = %_ZN18aiMaterialPropertyD2Ev.exit, %.lr.ph36
  %indvars.iv42 = phi i64 [ %indvars.iv.next43, %.lr.ph36 ], [ %indvars.iv, %_ZN18aiMaterialPropertyD2Ev.exit ]
  %31 = load ptr, ptr %0, align 8
  %indvars.iv.next43 = add nuw nsw i64 %indvars.iv42, 1
  %32 = getelementptr inbounds nuw ptr, ptr %31, i64 %indvars.iv.next43
  %33 = load ptr, ptr %32, align 8
  %34 = getelementptr inbounds nuw ptr, ptr %31, i64 %indvars.iv42
  store ptr %33, ptr %34, align 8
  %35 = load i32, ptr %5, align 8
  %36 = zext i32 %35 to i64
  %37 = icmp samesign ult i64 %indvars.iv.next43, %36
  br i1 %37, label %.lr.ph36, label %.critedge, !llvm.loop !19

38:                                               ; preds = %18, %14, %11, %8
  %indvars.iv.next = add nuw nsw i64 %indvars.iv, 1
  %exitcond.not = icmp eq i64 %indvars.iv.next, %wide.trip.count
  br i1 %exitcond.not, label %.critedge, label %8, !llvm.loop !20

.critedge:                                        ; preds = %38, %.lr.ph36, %4, %_ZN18aiMaterialPropertyD2Ev.exit
  %.not2528 = phi i32 [ 0, %_ZN18aiMaterialPropertyD2Ev.exit ], [ -1, %4 ], [ 0, %.lr.ph36 ], [ -1, %38 ]
  ret i32 %.not2528
}